target datalayout = "e-m:e-p270:32:32-p271:32:32-p272:64:64-i64:64-i128:128-f80:128-n8:16:32:64-S128"
target triple = "x86_64-pc-linux-gnu"

%class.QList.19 = type { %struct.QArrayDataPointer.22 }
%struct.QArrayDataPointer.22 = type { ptr, ptr, i64 }

@_ZTI15QTreeWidgetItem = external constant ptr
@_ZTI25WlanNetworkTreeWidgetItem = linkonce_odr constant { ptr, ptr, ptr } { ptr getelementptr inbounds (ptr, ptr @_ZTVN10__cxxabiv120__si_class_type_infoE, i64 2), ptr @_ZTS25WlanNetworkTreeWidgetItem, ptr @_ZTI15QTreeWidgetItem }, comdat, align 8

; Function Attrs: mustprogress nounwind null_pointer_is_valid sspstrong uwtable
define linkonce_odr void @_ZN17QArrayDataPointerI8QVariantEC2Ev(ptr noundef align 8 dereferenceable_or_null(24) %0) unnamed_addr #8 comdat align 2 {
  %2 = alloca ptr, align 8
  store ptr %0, ptr %2, align 8
  %3 = load ptr, ptr %2, align 8
  %4 = getelementptr inbounds nuw %struct.QArrayDataPointer.22, ptr %3, i32 0, i32 0
  store ptr null, ptr %4, align 8
  %5 = getelementptr inbounds nuw %struct.QArrayDataPointer.22, ptr %3, i32 0, i32 1
  store ptr null, ptr %5, align 8
  %6 = getelementptr inbounds nuw %struct.QArrayDataPointer.22, ptr %3, i32 0, i32 2
  store i64 0, ptr %6, align 8
  ret void
}

; Function Attrs: mustprogress nounwind null_pointer_is_valid sspstrong uwtable
define linkonce_odr void @_ZN5QListI8QVariantEC2Ev(ptr noundef align 8 dereferenceable_or_null(24) %0) unnamed_addr #8 comdat align 2 {
  %2 = alloca ptr, align 8
  store ptr %0, ptr %2, align 8
  %3 = load ptr, ptr %2, align 8
  %4 = getelementptr inbounds nuw %class.QList.19, ptr %3, i32 0, i32 0
  call void @_ZN17QArrayDataPointerI8QVariantEC2Ev(ptr noundef align 8 dereferenceable_or_null(24) %4) #3
  ret void
}

; Function Attrs: mustprogress null_pointer_is_valid sspstrong uwtable
define void @_ZNK20WlanStatisticsDialog12treeItemDataEP15QTreeWidgetItem(ptr dead_on_unwind noalias writable sret(%class.QList.19) align 8 %0, ptr noundef align 8 dereferenceable_or_null(288) %1, ptr noundef %2) unnamed_addr #4 align 2 {
  %4 = alloca ptr, align 8
  %5 = alloca ptr, align 8
  %6 = alloca ptr, align 8
  %7 = alloca ptr, align 8
  %8 = alloca i32, align 4
  store ptr %0, ptr %4, align 8
  store ptr %1, ptr %5, align 8
  store ptr %2, ptr %6, align 8
  call void @llvm.lifetime.start.p0(i64 8, ptr %7) #3
  %9 = load ptr, ptr %6, align 8
  %10 = icmp eq ptr %9, null
  br i1 %10, label %13, label %11

11:                                               ; preds = %3
  %12 = call ptr @__dynamic_cast(ptr %9, ptr @_ZTI15QTreeWidgetItem, ptr @_ZTI25WlanNetworkTreeWidgetItem, i64 0) #3
  br label %14

13:                                               ; preds = %3
  br label %14

14:                                               ; preds = %13, %11
  %15 = phi ptr [ %12, %11 ], [ null, %13 ]
  store ptr %15, ptr %7, align 8
  %16 = load ptr, ptr %7, align 8
  %17 = icmp ne ptr %16, null
  br i1 %17, label %18, label %20

18:                                               ; preds = %14
  %19 = load ptr, ptr %7, align 8
  call void @_ZN25WlanNetworkTreeWidgetItem7rowDataEv(ptr dead_on_unwind writable sret(%class.QList.19) align 8 %0, ptr noundef align 8 dereferenceable_or_null(216) %19)
  store i32 1, ptr %8, align 4
  br label %21

20:                                               ; preds = %14
  call void @llvm.memset.p0.i64(ptr align 8 %0, i8 0, i64 24, i1 false)
  call void @_ZN5QListI8QVariantEC2Ev(ptr noundef align 8 dereferenceable_or_null(24) %0) #3
  store i32 1, ptr %8, align 4
  br label %21

21:                                               ; preds = %20, %18
  call void @llvm.lifetime.end.p0(i64 8, ptr %7) #3
  ret void
}